Certificate:
    Data:
        Version: 3 (0x2)
        Serial Number:
            3c:10:4f:09:bd:9c:5e:e5:32:1f:44:c5:e9:9d:b3:04
        Signature Algorithm: sha384WithRSAEncryption
        Issuer: C = GB, ST = Greater Manchester, L = Salford, O = COMODO CA Limited, CN = COMODO RSA Certification Authority
        Validity
            Not Before: Feb 27 00:00:00 2019 GMT
            Not After : Feb 26 23:59:59 2029 GMT
        Subject: C = CN, ST = Guangdong, L = Shenzhen, O = WoTrus CA Limited, OU = Controlled by Sectigo exclusively for WoTrus CA Limited, CN = WoTrus DV Server CA
        Subject Public Key Info:
            Public Key Algorithm: rsaEncryption
                RSA Public-Key: (2048 bit)
                Modulus:
                    00:bd:28:3d:c8:d9:9e:4e:7c:cc:38:df:86:3c:bf:
                    ac:f5:1a:af:ec:d7:2a:80:21:56:36:13:5d:19:60:
                    7b:d4:23:72:eb:80:22:16:20:56:62:b8:60:d5:7c:
                    e2:fd:b2:b7:e6:45:87:d1:5e:05:65:69:86:10:49:
                    83:73:fc:86:b2:63:ab:59:b3:ec:49:4e:62:64:f8:
                    c6:9c:91:2e:df:95:ae:b5:3e:d6:68:69:08:69:ab:
                    68:66:57:29:bf:92:79:23:e9:cf:aa:42:aa:6d:53:
                    17:bd:4b:44:8a:0d:6c:ac:8a:27:b3:4b:21:c3:bd:
                    68:37:3c:a8:f1:77:5a:d9:fd:09:93:f1:09:6c:9d:
                    5e:d2:2a:d2:c6:b9:99:10:18:d6:26:3a:53:2f:e1:
                    69:20:74:e0:7d:4f:27:af:fa:bb:03:21:01:ac:46:
                    08:a8:1b:b6:d2:0f:c0:eb:d9:46:54:9f:2a:8b:c0:
                    7d:b1:60:13:fd:a7:36:49:f6:9b:02:45:3c:d9:4b:
                    19:59:b3:d4:ef:8c:6e:05:be:e4:0c:60:86:bf:b6:
                    75:3d:f3:47:4a:c9:31:5a:dc:79:4a:e6:db:df:46:
                    12:8e:a2:43:56:c7:4e:cb:d5:10:10:a8:d3:54:80:
                    4b:8f:1a:33:99:b6:e0:d8:2b:90:68:7f:1d:4c:74:
                    62:b1
                Exponent: 65537 (0x10001)
        X509v3 extensions:
            X509v3 Authority Key Identifier: 
                keyid:BB:AF:7E:02:3D:FA:A6:F1:3C:84:8E:AD:EE:38:98:EC:D9:32:32:D4

            X509v3 Subject Key Identifier: 
                0D:49:C9:0F:3E:B1:DF:32:03:B5:92:DB:25:A5:6D:74:EC:59:22:CB
            X509v3 Key Usage: critical
                Digital Signature, Certificate Sign, CRL Sign
            X509v3 Basic Constraints: critical
                CA:TRUE, pathlen:0
            X509v3 Extended Key Usage: 
                TLS Web Server Authentication, TLS Web Client Authentication
            X509v3 Certificate Policies: 
                Policy: 1.3.6.1.4.1.6449.1.2.2.22
                Policy: 2.23.140.1.2.1

            X509v3 CRL Distribution Points: 

                Full Name:
                  URI:http://crl.comodoca.com/COMODORSACertificationAuthority.crl

            Authority Information Access: 
                CA Issuers - URI:http://crt.comodoca.com/COMODORSAAddTrustCA.crt
                OCSP - URI:http://ocsp.comodoca.com

    Signature Algorithm: sha384WithRSAEncryption
         88:9d:c8:b0:2e:aa:7f:42:97:1c:39:39:ea:42:f9:5a:97:eb:
         ec:ab:fd:9b:b6:e1:4e:0f:c8:75:ef:1c:f6:32:c4:59:58:6a:
         25:4d:1e:fe:64:d9:3e:71:42:83:44:db:91:11:49:62:ac:1b:
         39:64:04:24:6d:b5:69:cd:4f:e3:21:87:df:8d:15:45:f7:90:
         15:76:9d:75:6c:a4:0e:3a:62:a4:ad:e9:4a:f3:34:7c:24:62:
         ce:ea:33:7f:b9:43:1e:b1:dd:bf:7d:50:2a:fe:e9:48:ee:17:
         58:a8:7d:a8:2b:b7:8e:ee:29:45:2b:02:98:33:46:e0:85:b3:
         3a:0b:36:36:de:67:b3:14:ae:17:9c:1d:0f:69:d8:dd:35:7a:
         61:4b:47:1c:ff:08:67:89:9c:7f:b1:1b:7a:87:c0:b4:8f:45:
         42:f9:81:2a:0d:2e:75:6c:fe:e1:4f:d8:51:0e:14:49:5f:44:
         5e:81:67:32:a8:e8:bc:d3:75:8c:44:68:73:15:13:4b:23:17:
         7a:52:c6:9d:38:5a:c3:d9:2a:af:f3:43:c8:2a:99:02:a0:7e:
         6f:50:c3:53:b3:1d:aa:e5:f2:7c:5b:c7:cf:47:78:f8:70:7b:
         7b:69:88:d8:5d:14:16:8c:65:94:85:01:33:f3:cd:e2:3e:34:
         0c:10:40:c7:a5:b3:3e:f7:ee:46:b9:f3:7b:d3:a5:00:86:db:
         be:78:9d:5a:b7:c8:f0:b8:05:67:69:ca:f3:4b:06:4b:35:4e:
         7f:8e:d7:44:be:1f:e1:2b:ea:2d:71:c3:a4:c4:d7:e9:09:80:
         fd:9f:d0:7d:0a:14:23:9a:ed:cc:09:8e:5b:6e:31:e1:26:0e:
         6e:9a:c5:5c:5d:db:01:22:e6:26:27:ed:cf:c3:91:92:b4:f7:
         03:3e:33:2f:d6:2e:64:8f:8e:b6:e7:49:53:eb:96:be:70:8a:
         f8:ef:e6:3c:60:0a:63:db:b6:50:90:ec:47:4d:80:b5:ce:38:
         c2:04:87:23:1f:df:1f:e8:b6:b5:57:9f:75:44:4e:72:ac:1d:
         c8:59:ac:11:2a:57:db:14:76:3e:f2:d9:96:f5:27:7b:5e:9b:
         f8:6f:9b:c9:19:cb:3a:76:51:15:82:b6:38:51:45:1e:a8:42:
         8e:7a:0c:86:86:73:8c:5a:27:02:ea:0c:e2:66:04:1c:67:fc:
         13:94:18:29:5a:e4:db:e2:03:68:b9:44:d6:31:f7:04:5e:c1:
         7e:53:69:a0:a5:ca:35:39:fb:94:60:d4:6f:18:88:41:9c:39:
         a7:5f:2e:be:65:8e:96:d4:7e:71:ef:17:2e:e7:c3:c7:3a:08:
         c2:bf:cd:ff:6a:23:fa:fd
-----BEGIN CERTIFICATE-----
MIIGLzCCBBegAwIBAgIQPBBPCb2cXuUyH0TF6Z2zBDANBgkqhkiG9w0BAQwFADCB
hTELMAkGA1UEBhMCR0IxGzAZBgNVBAgTEkdyZWF0ZXIgTWFuY2hlc3RlcjEQMA4G
A1UEBxMHU2FsZm9yZDEaMBgGA1UEChMRQ09NT0RPIENBIExpbWl0ZWQxKzApBgNV
BAMTIkNPTU9ETyBSU0EgQ2VydGlmaWNhdGlvbiBBdXRob3JpdHkwHhcNMTkwMjI3
MDAwMDAwWhcNMjkwMjI2MjM1OTU5WjCBsDELMAkGA1UEBhMCQ04xEjAQBgNVBAgT
CUd1YW5nZG9uZzERMA8GA1UEBxMIU2hlbnpoZW4xGjAYBgNVBAoTEVdvVHJ1cyBD
QSBMaW1pdGVkMUAwPgYDVQQLEzdDb250cm9sbGVkIGJ5IFNlY3RpZ28gZXhjbHVz
aXZlbHkgZm9yIFdvVHJ1cyBDQSBMaW1pdGVkMRwwGgYDVQQDExNXb1RydXMgRFYg
U2VydmVyIENBMIIBIjANBgkqhkiG9w0BAQEFAAOCAQ8AMIIBCgKCAQEAvSg9yNme
TnzMON+GPL+s9Rqv7NcqgCFWNhNdGWB71CNy64AiFiBWYrhg1Xzi/bK35kWH0V4F
ZWmGEEmDc/yGsmOrWbPsSU5iZPjGnJEu35WutT7WaGkIaatoZlcpv5J5I+nPqkKq
bVMXvUtEig1srIons0shw71oNzyo8Xda2f0Jk/EJbJ1e0irSxrmZEBjWJjpTL+Fp
IHTgfU8nr/q7AyEBrEYIqBu20g/A69lGVJ8qi8B9sWAT/ac2SfabAkU82UsZWbPU
74xuBb7kDGCGv7Z1PfNHSskxWtx5Subb30YSjqJDVsdOy9UQEKjTVIBLjxozmbbg
2CuQaH8dTHRisQIDAQABo4IBbDCCAWgwHwYDVR0jBBgwFoAUu69+Aj36pvE8hI6t
7jiY7NkyMtQwHQYDVR0OBBYEFA1JyQ8+sd8yA7WS2yWlbXTsWSLLMA4GA1UdDwEB
/wQEAwIBhjASBgNVHRMBAf8ECDAGAQH/AgEAMB0GA1UdJQQWMBQGCCsGAQUFBwMB
BggrBgEFBQcDAjAiBgNVHSAEGzAZMA0GCysGAQQBsjEBAgIWMAgGBmeBDAECATBM
BgNVHR8ERTBDMEGgP6A9hjtodHRwOi8vY3JsLmNvbW9kb2NhLmNvbS9DT01PRE9S
U0FDZXJ0aWZpY2F0aW9uQXV0aG9yaXR5LmNybDBxBggrBgEFBQcBAQRlMGMwOwYI
KwYBBQUHMAKGL2h0dHA6Ly9jcnQuY29tb2RvY2EuY29tL0NPTU9ET1JTQUFkZFRy
dXN0Q0EuY3J0MCQGCCsGAQUFBzABhhhodHRwOi8vb2NzcC5jb21vZG9jYS5jb20w
DQYJKoZIhvcNAQEMBQADggIBAIidyLAuqn9Clxw5OepC+VqX6+yr/Zu24U4PyHXv
HPYyxFlYaiVNHv5k2T5xQoNE25ERSWKsGzlkBCRttWnNT+Mhh9+NFUX3kBV2nXVs
pA46YqSt6UrzNHwkYs7qM3+5Qx6x3b99UCr+6UjuF1iofagrt47uKUUrApgzRuCF
szoLNjbeZ7MUrhecHQ9p2N01emFLRxz/CGeJnH+xG3qHwLSPRUL5gSoNLnVs/uFP
2FEOFElfRF6BZzKo6LzTdYxEaHMVE0sjF3pSxp04WsPZKq/zQ8gqmQKgfm9Qw1Oz
Harl8nxbx89HePhwe3tpiNhdFBaMZZSFATPzzeI+NAwQQMelsz737ka583vTpQCG
2754nVq3yPC4BWdpyvNLBks1Tn+O10S+H+Er6i1xw6TE1+kJgP2f0H0KFCOa7cwJ
jltuMeEmDm6axVxd2wEi5iYn7c/DkZK09wM+My/WLmSPjrbnSVPrlr5wivjv5jxg
CmPbtlCQ7EdNgLXOOMIEhyMf3x/otrVXn3VETnKsHchZrBEqV9sUdj7y2Zb1J3te
m/hvm8kZyzp2URWCtjhRRR6oQo56DIaGc4xaJwLqDOJmBBxn/BOUGCla5NviA2i5
RNYx9wRewX5TaaClyjU5+5Rg1G8YiEGcOadfLr5ljpbUfnHvFy7nw8c6CMK/zf9q
I/r9
-----END CERTIFICATE-----
